target datalayout = "e-m:e-p270:32:32-p271:32:32-p272:64:64-i64:64-i128:128-f80:128-n8:16:32:64-S128"
target triple = "x86_64-pc-linux-gnu"

%struct.Map_ManStruct_t_ = type { ptr, i32, ptr, i32, ptr, i32, i32, ptr, ptr, ptr, ptr, ptr, ptr, ptr, ptr, i32, i32, i32, i32, float, float, float, float, i32, i32, float, i32, i32, i32, i32, ptr, [6 x [2 x i32]], [10 x [32 x i32]], [32 x i32], [32 x i32], ptr, ptr, ptr, ptr, ptr, ptr, i32, i32, i32, i32, i32, i32, i64, i64, i64, i64, i64, i64, i64, i64, i64, i64, i64 }

@.str.1 = private unnamed_addr constant [50 x i8] c"N-canonical = %d. Matchings = %d.  Phases = %d.  \00", align 1
@.str.2 = private unnamed_addr constant [34 x i8] c"Choice nodes = %d. Choices = %d.\0A\00", align 1
@.str.3 = private unnamed_addr constant [5 x i8] c"%s =\00", align 1
@.str.4 = private unnamed_addr constant [6 x i8] c"ToMap\00", align 1
@.str.5 = private unnamed_addr constant [11 x i8] c"%9.2f sec\0A\00", align 1
@.str.6 = private unnamed_addr constant [6 x i8] c"Cuts \00", align 1
@.str.7 = private unnamed_addr constant [6 x i8] c"Truth\00", align 1
@.str.8 = private unnamed_addr constant [6 x i8] c"Match\00", align 1
@.str.9 = private unnamed_addr constant [6 x i8] c"Area \00", align 1
@.str.10 = private unnamed_addr constant [6 x i8] c"Sweep\00", align 1
@.str.11 = private unnamed_addr constant [6 x i8] c"ToNet\00", align 1
@.str.12 = private unnamed_addr constant [6 x i8] c"TOTAL\00", align 1
@.str.13 = private unnamed_addr constant [6 x i8] c"time1\00", align 1
@.str.14 = private unnamed_addr constant [6 x i8] c"time2\00", align 1
@.str.15 = private unnamed_addr constant [6 x i8] c"time3\00", align 1

; Function Attrs: nounwind uwtable
define void @Map_ManPrintTimeStats(ptr noundef %0) #0 {
  %2 = alloca ptr, align 8
  store ptr %0, ptr %2, align 8, !tbaa !3
  %3 = load ptr, ptr %2, align 8, !tbaa !3
  %4 = getelementptr inbounds nuw %struct.Map_ManStruct_t_, ptr %3, i32 0, i32 43
  %5 = load i32, ptr %4, align 8, !tbaa !115
  %6 = load ptr, ptr %2, align 8, !tbaa !3
  %7 = getelementptr inbounds nuw %struct.Map_ManStruct_t_, ptr %6, i32 0, i32 44
  %8 = load i32, ptr %7, align 4, !tbaa !116
  %9 = load ptr, ptr %2, align 8, !tbaa !3
  %10 = getelementptr inbounds nuw %struct.Map_ManStruct_t_, ptr %9, i32 0, i32 45
  %11 = load i32, ptr %10, align 8, !tbaa !117
  %12 = call i32 (ptr, ...) @printf(ptr noundef @.str.1, i32 noundef %5, i32 noundef %8, i32 noundef %11)
  %13 = load ptr, ptr %2, align 8, !tbaa !3
  %14 = getelementptr inbounds nuw %struct.Map_ManStruct_t_, ptr %13, i32 0, i32 41
  %15 = load i32, ptr %14, align 8, !tbaa !58
  %16 = load ptr, ptr %2, align 8, !tbaa !3
  %17 = getelementptr inbounds nuw %struct.Map_ManStruct_t_, ptr %16, i32 0, i32 42
  %18 = load i32, ptr %17, align 4, !tbaa !59
  %19 = call i32 (ptr, ...) @printf(ptr noundef @.str.2, i32 noundef %15, i32 noundef %18)
  call void (i32, ptr, ...) @Abc_Print(i32 noundef 1, ptr noundef @.str.3, ptr noundef @.str.4)
  %20 = load ptr, ptr %2, align 8, !tbaa !3
  %21 = getelementptr inbounds nuw %struct.Map_ManStruct_t_, ptr %20, i32 0, i32 47
  %22 = load i64, ptr %21, align 8, !tbaa !118
  %23 = sitofp i64 %22 to double
  %24 = fmul double 1.000000e+00, %23
  %25 = fdiv double %24, 1.000000e+06
  call void (i32, ptr, ...) @Abc_Print(i32 noundef 1, ptr noundef @.str.5, double noundef %25)
  call void (i32, ptr, ...) @Abc_Print(i32 noundef 1, ptr noundef @.str.3, ptr noundef @.str.6)
  %26 = load ptr, ptr %2, align 8, !tbaa !3
  %27 = getelementptr inbounds nuw %struct.Map_ManStruct_t_, ptr %26, i32 0, i32 48
  %28 = load i64, ptr %27, align 8, !tbaa !119
  %29 = sitofp i64 %28 to double
  %30 = fmul double 1.000000e+00, %29
  %31 = fdiv double %30, 1.000000e+06
  call void (i32, ptr, ...) @Abc_Print(i32 noundef 1, ptr noundef @.str.5, double noundef %31)
  call void (i32, ptr, ...) @Abc_Print(i32 noundef 1, ptr noundef @.str.3, ptr noundef @.str.7)
  %32 = load ptr, ptr %2, align 8, !tbaa !3
  %33 = getelementptr inbounds nuw %struct.Map_ManStruct_t_, ptr %32, i32 0, i32 49
  %34 = load i64, ptr %33, align 8, !tbaa !120
  %35 = sitofp i64 %34 to double
  %36 = fmul double 1.000000e+00, %35
  %37 = fdiv double %36, 1.000000e+06
  call void (i32, ptr, ...) @Abc_Print(i32 noundef 1, ptr noundef @.str.5, double noundef %37)
  call void (i32, ptr, ...) @Abc_Print(i32 noundef 1, ptr noundef @.str.3, ptr noundef @.str.8)
  %38 = load ptr, ptr %2, align 8, !tbaa !3
  %39 = getelementptr inbounds nuw %struct.Map_ManStruct_t_, ptr %38, i32 0, i32 50
  %40 = load i64, ptr %39, align 8, !tbaa !121
  %41 = sitofp i64 %40 to double
  %42 = fmul double 1.000000e+00, %41
  %43 = fdiv double %42, 1.000000e+06
  call void (i32, ptr, ...) @Abc_Print(i32 noundef 1, ptr noundef @.str.5, double noundef %43)
  call void (i32, ptr, ...) @Abc_Print(i32 noundef 1, ptr noundef @.str.3, ptr noundef @.str.9)
  %44 = load ptr, ptr %2, align 8, !tbaa !3
  %45 = getelementptr inbounds nuw %struct.Map_ManStruct_t_, ptr %44, i32 0, i32 51
  %46 = load i64, ptr %45, align 8, !tbaa !122
  %47 = sitofp i64 %46 to double
  %48 = fmul double 1.000000e+00, %47
  %49 = fdiv double %48, 1.000000e+06
  call void (i32, ptr, ...) @Abc_Print(i32 noundef 1, ptr noundef @.str.5, double noundef %49)
  call void (i32, ptr, ...) @Abc_Print(i32 noundef 1, ptr noundef @.str.3, ptr noundef @.str.10)
  %50 = load ptr, ptr %2, align 8, !tbaa !3
  %51 = getelementptr inbounds nuw %struct.Map_ManStruct_t_, ptr %50, i32 0, i32 52
  %52 = load i64, ptr %51, align 8, !tbaa !123
  %53 = sitofp i64 %52 to double
  %54 = fmul double 1.000000e+00, %53
  %55 = fdiv double %54, 1.000000e+06
  call void (i32, ptr, ...) @Abc_Print(i32 noundef 1, ptr noundef @.str.5, double noundef %55)
  call void (i32, ptr, ...) @Abc_Print(i32 noundef 1, ptr noundef @.str.3, ptr noundef @.str.11)
  %56 = load ptr, ptr %2, align 8, !tbaa !3
  %57 = getelementptr inbounds nuw %struct.Map_ManStruct_t_, ptr %56, i32 0, i32 53
  %58 = load i64, ptr %57, align 8, !tbaa !124
  %59 = sitofp i64 %58 to double
  %60 = fmul double 1.000000e+00, %59
  %61 = fdiv double %60, 1.000000e+06
  call void (i32, ptr, ...) @Abc_Print(i32 noundef 1, ptr noundef @.str.5, double noundef %61)
  call void (i32, ptr, ...) @Abc_Print(i32 noundef 1, ptr noundef @.str.3, ptr noundef @.str.12)
  %62 = load ptr, ptr %2, align 8, !tbaa !3
  %63 = getelementptr inbounds nuw %struct.Map_ManStruct_t_, ptr %62, i32 0, i32 54
  %64 = load i64, ptr %63, align 8, !tbaa !125
  %65 = sitofp i64 %64 to double
  %66 = fmul double 1.000000e+00, %65
  %67 = fdiv double %66, 1.000000e+06
  call void (i32, ptr, ...) @Abc_Print(i32 noundef 1, ptr noundef @.str.5, double noundef %67)
  %68 = load ptr, ptr %2, align 8, !tbaa !3
  %69 = getelementptr inbounds nuw %struct.Map_ManStruct_t_, ptr %68, i32 0, i32 55
  %70 = load i64, ptr %69, align 8, !tbaa !126
  %71 = icmp ne i64 %70, 0
  br i1 %71, label %72, label %79

72:                                               ; preds = %1
  call void (i32, ptr, ...) @Abc_Print(i32 noundef 1, ptr noundef @.str.3, ptr noundef @.str.13)
  %73 = load ptr, ptr %2, align 8, !tbaa !3
  %74 = getelementptr inbounds nuw %struct.Map_ManStruct_t_, ptr %73, i32 0, i32 55
  %75 = load i64, ptr %74, align 8, !tbaa !126
  %76 = sitofp i64 %75 to double
  %77 = fmul double 1.000000e+00, %76
  %78 = fdiv double %77, 1.000000e+06
  call void (i32, ptr, ...) @Abc_Print(i32 noundef 1, ptr noundef @.str.5, double noundef %78)
  br label %79

79:                                               ; preds = %72, %1
  %80 = load ptr, ptr %2, align 8, !tbaa !3
  %81 = getelementptr inbounds nuw %struct.Map_ManStruct_t_, ptr %80, i32 0, i32 56
  %82 = load i64, ptr %81, align 8, !tbaa !127
  %83 = icmp ne i64 %82, 0
  br i1 %83, label %84, label %91

84:                                               ; preds = %79
  call void (i32, ptr, ...) @Abc_Print(i32 noundef 1, ptr noundef @.str.3, ptr noundef @.str.14)
  %85 = load ptr, ptr %2, align 8, !tbaa !3
  %86 = getelementptr inbounds nuw %struct.Map_ManStruct_t_, ptr %85, i32 0, i32 56
  %87 = load i64, ptr %86, align 8, !tbaa !127
  %88 = sitofp i64 %87 to double
  %89 = fmul double 1.000000e+00, %88
  %90 = fdiv double %89, 1.000000e+06
  call void (i32, ptr, ...) @Abc_Print(i32 noundef 1, ptr noundef @.str.5, double noundef %90)
  br label %91

91:                                               ; preds = %84, %79
  %92 = load ptr, ptr %2, align 8, !tbaa !3
  %93 = getelementptr inbounds nuw %struct.Map_ManStruct_t_, ptr %92, i32 0, i32 57
  %94 = load i64, ptr %93, align 8, !tbaa !128
  %95 = icmp ne i64 %94, 0
  br i1 %95, label %96, label %103

96:                                               ; preds = %91
  call void (i32, ptr, ...) @Abc_Print(i32 noundef 1, ptr noundef @.str.3, ptr noundef @.str.15)
  %97 = load ptr, ptr %2, align 8, !tbaa !3
  %98 = getelementptr inbounds nuw %struct.Map_ManStruct_t_, ptr %97, i32 0, i32 57
  %99 = load i64, ptr %98, align 8, !tbaa !128
  %100 = sitofp i64 %99 to double
  %101 = fmul double 1.000000e+00, %100
  %102 = fdiv double %101, 1.000000e+06
  call void (i32, ptr, ...) @Abc_Print(i32 noundef 1, ptr noundef @.str.5, double noundef %102)
  br label %103

103:                                              ; preds = %96, %91
  ret void
}