; Function Attrs: nounwind uwtable
define void @Map_ManPrintTimeStats(ptr noundef readonly captures(none) %0) local_unnamed_addr #1 {
  %2 = getelementptr inbounds nuw i8, ptr %0, i64 1824
  %3 = load i32, ptr %2, align 8, !tbaa !109
  %4 = getelementptr inbounds nuw i8, ptr %0, i64 1828
  %5 = load i32, ptr %4, align 4, !tbaa !110
  %6 = getelementptr inbounds nuw i8, ptr %0, i64 1832
  %7 = load i32, ptr %6, align 8, !tbaa !111
  %8 = tail call i32 (ptr, ...) @printf(ptr noundef nonnull dereferenceable(1) @.str.1, i32 noundef %3, i32 noundef %5, i32 noundef %7)
  %9 = getelementptr inbounds nuw i8, ptr %0, i64 1816
  %10 = load i32, ptr %9, align 8, !tbaa !53
  %11 = getelementptr inbounds nuw i8, ptr %0, i64 1820
  %12 = load i32, ptr %11, align 4, !tbaa !54
  %13 = tail call i32 (ptr, ...) @printf(ptr noundef nonnull dereferenceable(1) @.str.2, i32 noundef %10, i32 noundef %12)
  tail call void (i32, ptr, ...) @Abc_Print(i32 poison, ptr noundef nonnull @.str.3, ptr noundef nonnull @.str.4)
  %14 = getelementptr inbounds nuw i8, ptr %0, i64 1840
  %15 = load i64, ptr %14, align 8, !tbaa !112
  %16 = sitofp i64 %15 to double
  %17 = fdiv double %16, 1.000000e+06
  tail call void (i32, ptr, ...) @Abc_Print(i32 poison, ptr noundef nonnull @.str.5, double noundef %17)
  tail call void (i32, ptr, ...) @Abc_Print(i32 poison, ptr noundef nonnull @.str.3, ptr noundef nonnull @.str.6)
  %18 = getelementptr inbounds nuw i8, ptr %0, i64 1848
  %19 = load i64, ptr %18, align 8, !tbaa !113
  %20 = sitofp i64 %19 to double
  %21 = fdiv double %20, 1.000000e+06
  tail call void (i32, ptr, ...) @Abc_Print(i32 poison, ptr noundef nonnull @.str.5, double noundef %21)
  tail call void (i32, ptr, ...) @Abc_Print(i32 poison, ptr noundef nonnull @.str.3, ptr noundef nonnull @.str.7)
  %22 = getelementptr inbounds nuw i8, ptr %0, i64 1856
  %23 = load i64, ptr %22, align 8, !tbaa !114
  %24 = sitofp i64 %23 to double
  %25 = fdiv double %24, 1.000000e+06
  tail call void (i32, ptr, ...) @Abc_Print(i32 poison, ptr noundef nonnull @.str.5, double noundef %25)
  tail call void (i32, ptr, ...) @Abc_Print(i32 poison, ptr noundef nonnull @.str.3, ptr noundef nonnull @.str.8)
  %26 = getelementptr inbounds nuw i8, ptr %0, i64 1864
  %27 = load i64, ptr %26, align 8, !tbaa !115
  %28 = sitofp i64 %27 to double
  %29 = fdiv double %28, 1.000000e+06
  tail call void (i32, ptr, ...) @Abc_Print(i32 poison, ptr noundef nonnull @.str.5, double noundef %29)
  tail call void (i32, ptr, ...) @Abc_Print(i32 poison, ptr noundef nonnull @.str.3, ptr noundef nonnull @.str.9)
  %30 = getelementptr inbounds nuw i8, ptr %0, i64 1872
  %31 = load i64, ptr %30, align 8, !tbaa !116
  %32 = sitofp i64 %31 to double
  %33 = fdiv double %32, 1.000000e+06
  tail call void (i32, ptr, ...) @Abc_Print(i32 poison, ptr noundef nonnull @.str.5, double noundef %33)
  tail call void (i32, ptr, ...) @Abc_Print(i32 poison, ptr noundef nonnull @.str.3, ptr noundef nonnull @.str.10)
  %34 = getelementptr inbounds nuw i8, ptr %0, i64 1880
  %35 = load i64, ptr %34, align 8, !tbaa !117
  %36 = sitofp i64 %35 to double
  %37 = fdiv double %36, 1.000000e+06
  tail call void (i32, ptr, ...) @Abc_Print(i32 poison, ptr noundef nonnull @.str.5, double noundef %37)
  tail call void (i32, ptr, ...) @Abc_Print(i32 poison, ptr noundef nonnull @.str.3, ptr noundef nonnull @.str.11)
  %38 = getelementptr inbounds nuw i8, ptr %0, i64 1888
  %39 = load i64, ptr %38, align 8, !tbaa !118
  %40 = sitofp i64 %39 to double
  %41 = fdiv double %40, 1.000000e+06
  tail call void (i32, ptr, ...) @Abc_Print(i32 poison, ptr noundef nonnull @.str.5, double noundef %41)
  tail call void (i32, ptr, ...) @Abc_Print(i32 poison, ptr noundef nonnull @.str.3, ptr noundef nonnull @.str.12)
  %42 = getelementptr inbounds nuw i8, ptr %0, i64 1896
  %43 = load i64, ptr %42, align 8, !tbaa !119
  %44 = sitofp i64 %43 to double
  %45 = fdiv double %44, 1.000000e+06
  tail call void (i32, ptr, ...) @Abc_Print(i32 poison, ptr noundef nonnull @.str.5, double noundef %45)
  %46 = getelementptr inbounds nuw i8, ptr %0, i64 1904
  %47 = load i64, ptr %46, align 8, !tbaa !120
  %.not = icmp eq i64 %47, 0
  br i1 %.not, label %52, label %48

48:                                               ; preds = %1
  tail call void (i32, ptr, ...) @Abc_Print(i32 poison, ptr noundef nonnull @.str.3, ptr noundef nonnull @.str.13)
  %49 = load i64, ptr %46, align 8, !tbaa !120
  %50 = sitofp i64 %49 to double
  %51 = fdiv double %50, 1.000000e+06
  tail call void (i32, ptr, ...) @Abc_Print(i32 poison, ptr noundef nonnull @.str.5, double noundef %51)
  br label %52

52:                                               ; preds = %48, %1
  %53 = getelementptr inbounds nuw i8, ptr %0, i64 1912
  %54 = load i64, ptr %53, align 8, !tbaa !121
  %.not19 = icmp eq i64 %54, 0
  br i1 %.not19, label %59, label %55

55:                                               ; preds = %52
  tail call void (i32, ptr, ...) @Abc_Print(i32 poison, ptr noundef nonnull @.str.3, ptr noundef nonnull @.str.14)
  %56 = load i64, ptr %53, align 8, !tbaa !121
  %57 = sitofp i64 %56 to double
  %58 = fdiv double %57, 1.000000e+06
  tail call void (i32, ptr, ...) @Abc_Print(i32 poison, ptr noundef nonnull @.str.5, double noundef %58)
  br label %59

59:                                               ; preds = %55, %52
  %60 = getelementptr inbounds nuw i8, ptr %0, i64 1920
  %61 = load i64, ptr %60, align 8, !tbaa !122
  %.not20 = icmp eq i64 %61, 0
  br i1 %.not20, label %66, label %62

62:                                               ; preds = %59
  tail call void (i32, ptr, ...) @Abc_Print(i32 poison, ptr noundef nonnull @.str.3, ptr noundef nonnull @.str.15)
  %63 = load i64, ptr %60, align 8, !tbaa !122
  %64 = sitofp i64 %63 to double
  %65 = fdiv double %64, 1.000000e+06
  tail call void (i32, ptr, ...) @Abc_Print(i32 poison, ptr noundef nonnull @.str.5, double noundef %65)
  br label %66

66:                                               ; preds = %62, %59
  ret void
}